target datalayout = "e-m:e-p270:32:32-p271:32:32-p272:64:64-i64:64-i128:128-f80:128-n8:16:32:64-S128"
target triple = "x86_64-pc-linux-gnu"

%"class.grpc_core::promise_detail::FreestandingActivity" = type { %"class.grpc_core::Activity", %"class.grpc_core::Wakeable", %"class.absl::lts_20240722::Mutex", %"struct.std::atomic.0", i8, ptr }
%"class.grpc_core::Activity" = type { %"class.grpc_core::Orphanable" }
%"class.grpc_core::Orphanable" = type { ptr }
%"class.grpc_core::Wakeable" = type { ptr }
%"class.absl::lts_20240722::Mutex" = type { %"struct.std::atomic" }
%"struct.std::atomic" = type { %"struct.std::__atomic_base" }
%"struct.std::__atomic_base" = type { i64 }
%"struct.std::atomic.0" = type { %"struct.std::__atomic_base.1" }
%"struct.std::__atomic_base.1" = type { i32 }

; Function Attrs: noinline noreturn nounwind uwtable
define linkonce_odr hidden void @__clang_call_terminate(ptr noundef %0) #11 comdat {
  %2 = call ptr @__cxa_begin_catch(ptr %0) #3
  call void @_ZSt9terminatev() #26
  unreachable
}

; Function Attrs: mustprogress nounwind uwtable
define linkonce_odr noundef i32 @_ZStanSt12memory_orderSt23__memory_order_modifier(i32 noundef %0, i32 noundef %1) #6 comdat {
  %3 = alloca i32, align 4
  %4 = alloca i32, align 4
  store i32 %0, ptr %3, align 4, !tbaa !103
  store i32 %1, ptr %4, align 4, !tbaa !159
  %5 = load i32, ptr %3, align 4, !tbaa !103
  %6 = load i32, ptr %4, align 4, !tbaa !159
  %7 = and i32 %5, %6
  ret i32 %7
}

; Function Attrs: alwaysinline mustprogress nounwind uwtable
define linkonce_odr noundef zeroext i1 @_ZNSt13__atomic_baseIjE21compare_exchange_weakERjjSt12memory_orderS2_(ptr noundef nonnull align 4 dereferenceable(4) %0, ptr noundef nonnull align 4 dereferenceable(4) %1, i32 noundef %2, i32 noundef %3, i32 noundef %4) #10 comdat align 2 {
  %6 = alloca ptr, align 8
  %7 = alloca ptr, align 8
  %8 = alloca i32, align 4
  %9 = alloca i32, align 4
  %10 = alloca i32, align 4
  %11 = alloca i32, align 4
  %12 = alloca i8, align 1
  store ptr %0, ptr %6, align 8, !tbaa !132
  store ptr %1, ptr %7, align 8, !tbaa !74
  store i32 %2, ptr %8, align 4, !tbaa !20
  store i32 %3, ptr %9, align 4, !tbaa !103
  store i32 %4, ptr %10, align 4, !tbaa !103
  %13 = load ptr, ptr %6, align 8
  br label %14

14:                                               ; preds = %5
  br label %15

15:                                               ; preds = %14
  br label %16

16:                                               ; preds = %15
  %17 = getelementptr inbounds nuw %"struct.std::__atomic_base.1", ptr %13, i32 0, i32 0
  %18 = load i32, ptr %9, align 4, !tbaa !103
  %19 = load ptr, ptr %7, align 8, !tbaa !74
  %20 = load i32, ptr %8, align 4, !tbaa !20
  store i32 %20, ptr %11, align 4, !tbaa !20
  %21 = load i32, ptr %10, align 4, !tbaa !103
  switch i32 %18, label %22 [
    i32 1, label %23
    i32 2, label %23
    i32 3, label %24
    i32 4, label %25
    i32 5, label %26
  ]

22:                                               ; preds = %16
  switch i32 %21, label %30 [
    i32 1, label %36
    i32 2, label %36
    i32 5, label %42
  ]

23:                                               ; preds = %16, %16
  switch i32 %21, label %58 [
    i32 1, label %64
    i32 2, label %64
    i32 5, label %70
  ]

24:                                               ; preds = %16
  switch i32 %21, label %86 [
    i32 1, label %92
    i32 2, label %92
    i32 5, label %98
  ]

25:                                               ; preds = %16
  switch i32 %21, label %114 [
    i32 1, label %120
    i32 2, label %120
    i32 5, label %126
  ]

26:                                               ; preds = %16
  switch i32 %21, label %142 [
    i32 1, label %148
    i32 2, label %148
    i32 5, label %154
  ]

27:                                               ; preds = %160, %132, %104, %76, %48
  %28 = load i8, ptr %12, align 1, !tbaa !155, !range !157, !noundef !158
  %29 = trunc i8 %28 to i1
  ret i1 %29

30:                                               ; preds = %22
  %31 = load i32, ptr %19, align 4
  %32 = load i32, ptr %11, align 4
  %33 = cmpxchg weak ptr %17, i32 %31, i32 %32 monotonic monotonic, align 4
  %34 = extractvalue { i32, i1 } %33, 0
  %35 = extractvalue { i32, i1 } %33, 1
  br i1 %35, label %50, label %49

36:                                               ; preds = %22, %22
  %37 = load i32, ptr %19, align 4
  %38 = load i32, ptr %11, align 4
  %39 = cmpxchg weak ptr %17, i32 %37, i32 %38 monotonic acquire, align 4
  %40 = extractvalue { i32, i1 } %39, 0
  %41 = extractvalue { i32, i1 } %39, 1
  br i1 %41, label %53, label %52

42:                                               ; preds = %22
  %43 = load i32, ptr %19, align 4
  %44 = load i32, ptr %11, align 4
  %45 = cmpxchg weak ptr %17, i32 %43, i32 %44 monotonic seq_cst, align 4
  %46 = extractvalue { i32, i1 } %45, 0
  %47 = extractvalue { i32, i1 } %45, 1
  br i1 %47, label %56, label %55

48:                                               ; preds = %56, %53, %50
  br label %27

49:                                               ; preds = %30
  store i32 %34, ptr %19, align 4
  br label %50

50:                                               ; preds = %49, %30
  %51 = zext i1 %35 to i8
  store i8 %51, ptr %12, align 1, !tbaa !155
  br label %48

52:                                               ; preds = %36
  store i32 %40, ptr %19, align 4
  br label %53

53:                                               ; preds = %52, %36
  %54 = zext i1 %41 to i8
  store i8 %54, ptr %12, align 1, !tbaa !155
  br label %48

55:                                               ; preds = %42
  store i32 %46, ptr %19, align 4
  br label %56

56:                                               ; preds = %55, %42
  %57 = zext i1 %47 to i8
  store i8 %57, ptr %12, align 1, !tbaa !155
  br label %48

58:                                               ; preds = %23
  %59 = load i32, ptr %19, align 4
  %60 = load i32, ptr %11, align 4
  %61 = cmpxchg weak ptr %17, i32 %59, i32 %60 acquire monotonic, align 4
  %62 = extractvalue { i32, i1 } %61, 0
  %63 = extractvalue { i32, i1 } %61, 1
  br i1 %63, label %78, label %77

64:                                               ; preds = %23, %23
  %65 = load i32, ptr %19, align 4
  %66 = load i32, ptr %11, align 4
  %67 = cmpxchg weak ptr %17, i32 %65, i32 %66 acquire acquire, align 4
  %68 = extractvalue { i32, i1 } %67, 0
  %69 = extractvalue { i32, i1 } %67, 1
  br i1 %69, label %81, label %80

70:                                               ; preds = %23
  %71 = load i32, ptr %19, align 4
  %72 = load i32, ptr %11, align 4
  %73 = cmpxchg weak ptr %17, i32 %71, i32 %72 acquire seq_cst, align 4
  %74 = extractvalue { i32, i1 } %73, 0
  %75 = extractvalue { i32, i1 } %73, 1
  br i1 %75, label %84, label %83

76:                                               ; preds = %84, %81, %78
  br label %27

77:                                               ; preds = %58
  store i32 %62, ptr %19, align 4
  br label %78

78:                                               ; preds = %77, %58
  %79 = zext i1 %63 to i8
  store i8 %79, ptr %12, align 1, !tbaa !155
  br label %76

80:                                               ; preds = %64
  store i32 %68, ptr %19, align 4
  br label %81

81:                                               ; preds = %80, %64
  %82 = zext i1 %69 to i8
  store i8 %82, ptr %12, align 1, !tbaa !155
  br label %76

83:                                               ; preds = %70
  store i32 %74, ptr %19, align 4
  br label %84

84:                                               ; preds = %83, %70
  %85 = zext i1 %75 to i8
  store i8 %85, ptr %12, align 1, !tbaa !155
  br label %76

86:                                               ; preds = %24
  %87 = load i32, ptr %19, align 4
  %88 = load i32, ptr %11, align 4
  %89 = cmpxchg weak ptr %17, i32 %87, i32 %88 release monotonic, align 4
  %90 = extractvalue { i32, i1 } %89, 0
  %91 = extractvalue { i32, i1 } %89, 1
  br i1 %91, label %106, label %105

92:                                               ; preds = %24, %24
  %93 = load i32, ptr %19, align 4
  %94 = load i32, ptr %11, align 4
  %95 = cmpxchg weak ptr %17, i32 %93, i32 %94 release acquire, align 4
  %96 = extractvalue { i32, i1 } %95, 0
  %97 = extractvalue { i32, i1 } %95, 1
  br i1 %97, label %109, label %108

98:                                               ; preds = %24
  %99 = load i32, ptr %19, align 4
  %100 = load i32, ptr %11, align 4
  %101 = cmpxchg weak ptr %17, i32 %99, i32 %100 release seq_cst, align 4
  %102 = extractvalue { i32, i1 } %101, 0
  %103 = extractvalue { i32, i1 } %101, 1
  br i1 %103, label %112, label %111

104:                                              ; preds = %112, %109, %106
  br label %27

105:                                              ; preds = %86
  store i32 %90, ptr %19, align 4
  br label %106

106:                                              ; preds = %105, %86
  %107 = zext i1 %91 to i8
  store i8 %107, ptr %12, align 1, !tbaa !155
  br label %104

108:                                              ; preds = %92
  store i32 %96, ptr %19, align 4
  br label %109

109:                                              ; preds = %108, %92
  %110 = zext i1 %97 to i8
  store i8 %110, ptr %12, align 1, !tbaa !155
  br label %104

111:                                              ; preds = %98
  store i32 %102, ptr %19, align 4
  br label %112

112:                                              ; preds = %111, %98
  %113 = zext i1 %103 to i8
  store i8 %113, ptr %12, align 1, !tbaa !155
  br label %104

114:                                              ; preds = %25
  %115 = load i32, ptr %19, align 4
  %116 = load i32, ptr %11, align 4
  %117 = cmpxchg weak ptr %17, i32 %115, i32 %116 acq_rel monotonic, align 4
  %118 = extractvalue { i32, i1 } %117, 0
  %119 = extractvalue { i32, i1 } %117, 1
  br i1 %119, label %134, label %133

120:                                              ; preds = %25, %25
  %121 = load i32, ptr %19, align 4
  %122 = load i32, ptr %11, align 4
  %123 = cmpxchg weak ptr %17, i32 %121, i32 %122 acq_rel acquire, align 4
  %124 = extractvalue { i32, i1 } %123, 0
  %125 = extractvalue { i32, i1 } %123, 1
  br i1 %125, label %137, label %136

126:                                              ; preds = %25
  %127 = load i32, ptr %19, align 4
  %128 = load i32, ptr %11, align 4
  %129 = cmpxchg weak ptr %17, i32 %127, i32 %128 acq_rel seq_cst, align 4
  %130 = extractvalue { i32, i1 } %129, 0
  %131 = extractvalue { i32, i1 } %129, 1
  br i1 %131, label %140, label %139

132:                                              ; preds = %140, %137, %134
  br label %27

133:                                              ; preds = %114
  store i32 %118, ptr %19, align 4
  br label %134

134:                                              ; preds = %133, %114
  %135 = zext i1 %119 to i8
  store i8 %135, ptr %12, align 1, !tbaa !155
  br label %132

136:                                              ; preds = %120
  store i32 %124, ptr %19, align 4
  br label %137

137:                                              ; preds = %136, %120
  %138 = zext i1 %125 to i8
  store i8 %138, ptr %12, align 1, !tbaa !155
  br label %132

139:                                              ; preds = %126
  store i32 %130, ptr %19, align 4
  br label %140

140:                                              ; preds = %139, %126
  %141 = zext i1 %131 to i8
  store i8 %141, ptr %12, align 1, !tbaa !155
  br label %132

142:                                              ; preds = %26
  %143 = load i32, ptr %19, align 4
  %144 = load i32, ptr %11, align 4
  %145 = cmpxchg weak ptr %17, i32 %143, i32 %144 seq_cst monotonic, align 4
  %146 = extractvalue { i32, i1 } %145, 0
  %147 = extractvalue { i32, i1 } %145, 1
  br i1 %147, label %162, label %161

148:                                              ; preds = %26, %26
  %149 = load i32, ptr %19, align 4
  %150 = load i32, ptr %11, align 4
  %151 = cmpxchg weak ptr %17, i32 %149, i32 %150 seq_cst acquire, align 4
  %152 = extractvalue { i32, i1 } %151, 0
  %153 = extractvalue { i32, i1 } %151, 1
  br i1 %153, label %165, label %164

154:                                              ; preds = %26
  %155 = load i32, ptr %19, align 4
  %156 = load i32, ptr %11, align 4
  %157 = cmpxchg weak ptr %17, i32 %155, i32 %156 seq_cst seq_cst, align 4
  %158 = extractvalue { i32, i1 } %157, 0
  %159 = extractvalue { i32, i1 } %157, 1
  br i1 %159, label %168, label %167

160:                                              ; preds = %168, %165, %162
  br label %27

161:                                              ; preds = %142
  store i32 %146, ptr %19, align 4
  br label %162

162:                                              ; preds = %161, %142
  %163 = zext i1 %147 to i8
  store i8 %163, ptr %12, align 1, !tbaa !155
  br label %160

164:                                              ; preds = %148
  store i32 %152, ptr %19, align 4
  br label %165

165:                                              ; preds = %164, %148
  %166 = zext i1 %153 to i8
  store i8 %166, ptr %12, align 1, !tbaa !155
  br label %160

167:                                              ; preds = %154
  store i32 %158, ptr %19, align 4
  br label %168

168:                                              ; preds = %167, %154
  %169 = zext i1 %159 to i8
  store i8 %169, ptr %12, align 1, !tbaa !155
  br label %160
}

; Function Attrs: alwaysinline mustprogress nounwind uwtable
define linkonce_odr noundef i32 @_ZNKSt13__atomic_baseIjE4loadESt12memory_order(ptr noundef nonnull align 4 dereferenceable(4) %0, i32 noundef %1) #10 comdat align 2 personality ptr @__gxx_personality_v0 {
  %3 = alloca ptr, align 8
  %4 = alloca i32, align 4
  %5 = alloca i32, align 4
  %6 = alloca i32, align 4
  store ptr %0, ptr %3, align 8, !tbaa !132
  store i32 %1, ptr %4, align 4, !tbaa !103
  %7 = load ptr, ptr %3, align 8
  call void @llvm.lifetime.start.p0(i64 4, ptr %5) #3
  %8 = load i32, ptr %4, align 4, !tbaa !103
  %9 = invoke noundef i32 @_ZStanSt12memory_orderSt23__memory_order_modifier(i32 noundef %8, i32 noundef 65535)
          to label %10 unwind label %27

10:                                               ; preds = %2
  store i32 %9, ptr %5, align 4, !tbaa !103
  br label %11

11:                                               ; preds = %10
  br label %12

12:                                               ; preds = %11
  br label %13

13:                                               ; preds = %12
  br label %14

14:                                               ; preds = %13
  br label %15

15:                                               ; preds = %14
  br label %16

16:                                               ; preds = %15
  %17 = getelementptr inbounds nuw %"struct.std::__atomic_base.1", ptr %7, i32 0, i32 0
  %18 = load i32, ptr %4, align 4, !tbaa !103
  switch i32 %18, label %19 [
    i32 1, label %21
    i32 2, label %21
    i32 5, label %23
  ]

19:                                               ; preds = %16
  %20 = load atomic i32, ptr %17 monotonic, align 4
  store i32 %20, ptr %6, align 4
  br label %25

21:                                               ; preds = %16, %16
  %22 = load atomic i32, ptr %17 acquire, align 4
  store i32 %22, ptr %6, align 4
  br label %25

23:                                               ; preds = %16
  %24 = load atomic i32, ptr %17 seq_cst, align 4
  store i32 %24, ptr %6, align 4
  br label %25

25:                                               ; preds = %23, %21, %19
  %26 = load i32, ptr %6, align 4, !tbaa !20
  call void @llvm.lifetime.end.p0(i64 4, ptr %5) #3
  ret i32 %26

27:                                               ; preds = %2
  %28 = landingpad { ptr, i32 }
          catch ptr null
  %29 = extractvalue { ptr, i32 } %28, 0
  call void @__clang_call_terminate(ptr %29) #26
  unreachable
}

; Function Attrs: inlinehint mustprogress nounwind uwtable
define linkonce_odr noundef zeroext i1 @_ZN9grpc_core18IncrementIfNonzeroIjEEbPSt6atomicIT_E(ptr noundef %0) #7 comdat {
  %2 = alloca i1, align 1
  %3 = alloca ptr, align 8
  %4 = alloca i32, align 4
  %5 = alloca i32, align 4
  store ptr %0, ptr %3, align 8, !tbaa !18
  call void @llvm.lifetime.start.p0(i64 4, ptr %4) #3
  %6 = load ptr, ptr %3, align 8, !tbaa !18
  %7 = call noundef i32 @_ZNKSt13__atomic_baseIjE4loadESt12memory_order(ptr noundef nonnull align 4 dereferenceable(4) %6, i32 noundef 2) #3
  store i32 %7, ptr %4, align 4, !tbaa !20
  br label %8

8:                                                ; preds = %13, %1
  %9 = load i32, ptr %4, align 4, !tbaa !20
  %10 = icmp eq i32 %9, 0
  br i1 %10, label %11, label %12

11:                                               ; preds = %8
  store i1 false, ptr %2, align 1
  store i32 1, ptr %5, align 4
  br label %20

12:                                               ; preds = %8
  br label %13

13:                                               ; preds = %12
  %14 = load ptr, ptr %3, align 8, !tbaa !18
  %15 = load i32, ptr %4, align 4, !tbaa !20
  %16 = add i32 %15, 1
  %17 = call noundef zeroext i1 @_ZNSt13__atomic_baseIjE21compare_exchange_weakERjjSt12memory_orderS2_(ptr noundef nonnull align 4 dereferenceable(4) %14, ptr noundef nonnull align 4 dereferenceable(4) %4, i32 noundef %16, i32 noundef 4, i32 noundef 2) #3
  %18 = xor i1 %17, true
  br i1 %18, label %8, label %19, !llvm.loop !22

19:                                               ; preds = %13
  store i1 true, ptr %2, align 1
  store i32 1, ptr %5, align 4
  br label %20

20:                                               ; preds = %19, %11
  call void @llvm.lifetime.end.p0(i64 4, ptr %4) #3
  %21 = load i1, ptr %2, align 1
  ret i1 %21
}

; Function Attrs: mustprogress uwtable
define noundef zeroext i1 @_ZN9grpc_core14promise_detail20FreestandingActivity12RefIfNonzeroEv(ptr noundef nonnull align 8 dereferenceable(40) %0) #4 align 2 {
  %2 = alloca ptr, align 8
  store ptr %0, ptr %2, align 8, !tbaa !16
  %3 = load ptr, ptr %2, align 8
  %4 = getelementptr inbounds nuw %"class.grpc_core::promise_detail::FreestandingActivity", ptr %3, i32 0, i32 3
  %5 = call noundef zeroext i1 @_ZN9grpc_core18IncrementIfNonzeroIjEEbPSt6atomicIT_E(ptr noundef %4)
  ret i1 %5
}