; Function Attrs: mustprogress nofree norecurse nounwind memory(argmem: readwrite) uwtable
define noundef zeroext i1 @_ZN9grpc_core14promise_detail20FreestandingActivity12RefIfNonzeroEv(ptr noundef nonnull align 8 captures(none) dereferenceable(40) %0) local_unnamed_addr #5 align 2 personality ptr @__gxx_personality_v0 {
  %2 = getelementptr inbounds nuw i8, ptr %0, i64 24
  %3 = load atomic i32, ptr %2 acquire, align 8
  %.not.i = icmp eq i32 %3, 0
  br i1 %.not.i, label %_ZN9grpc_core18IncrementIfNonzeroIjEEbPSt6atomicIT_E.exit, label %.lr.ph.i

.lr.ph.i:                                         ; preds = %1, %.lr.ph.i
  %.06.i = phi i32 [ %7, %.lr.ph.i ], [ %3, %1 ]
  %4 = add i32 %.06.i, 1
  %5 = cmpxchg weak ptr %2, i32 %.06.i, i32 %4 acq_rel acquire, align 4
  %6 = extractvalue { i32, i1 } %5, 1
  %7 = extractvalue { i32, i1 } %5, 0
  %.not9.i = icmp eq i32 %7, 0
  %or.cond = select i1 %6, i1 true, i1 %.not9.i
  br i1 %or.cond, label %_ZN9grpc_core18IncrementIfNonzeroIjEEbPSt6atomicIT_E.exit, label %.lr.ph.i

_ZN9grpc_core18IncrementIfNonzeroIjEEbPSt6atomicIT_E.exit: ; preds = %.lr.ph.i, %1
  %.lcssa.i = phi i1 [ false, %1 ], [ %6, %.lr.ph.i ]
  ret i1 %.lcssa.i
}